; Function Attrs: mustprogress uwtable
define void @_ZN5Ipopt10GenTMatrixC2EPKNS_15GenTMatrixSpaceE(ptr noundef nonnull align 8 dereferenceable(89) %0, ptr noundef %1) unnamed_addr #0 align 2 personality ptr @__gxx_personality_v0 {
  %3 = getelementptr inbounds i8, ptr %0, i64 8
  store i32 0, ptr %3, align 8
  %4 = getelementptr inbounds i8, ptr %0, i64 16
  %5 = getelementptr inbounds i8, ptr %0, i64 24
  tail call void @llvm.memset.p0.i64(ptr noundef nonnull align 8 dereferenceable(24) %5, i8 0, i64 24, i1 false)
  store ptr getelementptr inbounds ({ [4 x ptr], [4 x ptr] }, ptr @_ZTVN5Ipopt12TaggedObjectE, i64 0, i32 0, i64 2), ptr %0, align 8
  store ptr getelementptr inbounds ({ [4 x ptr], [4 x ptr] }, ptr @_ZTVN5Ipopt12TaggedObjectE, i64 0, i32 1, i64 2), ptr %4, align 8
  invoke void @_ZN5Ipopt12TaggedObject13ObjectChangedEv(ptr noundef nonnull align 8 dereferenceable(56) %0)
          to label %_ZN5Ipopt12TaggedObjectC2Ev.exit.i unwind label %6

common.resume:                                    ; preds = %40, %6
  %common.resume.op = phi { ptr, i32 } [ %7, %6 ], [ %41, %40 ]
  resume { ptr, i32 } %common.resume.op

6:                                                ; preds = %2
  %7 = landingpad { ptr, i32 }
          cleanup
  tail call void @_ZN5Ipopt7SubjectD2Ev(ptr noundef nonnull align 8 dereferenceable(32) %4) #11
  store ptr getelementptr inbounds ({ [4 x ptr] }, ptr @_ZTVN5Ipopt16ReferencedObjectE, i64 0, i32 0, i64 2), ptr %0, align 8
  br label %common.resume

_ZN5Ipopt12TaggedObjectC2Ev.exit.i:               ; preds = %2
  store ptr getelementptr inbounds ({ [14 x ptr], [4 x ptr] }, ptr @_ZTVN5Ipopt6MatrixE, i64 0, i32 0, i64 2), ptr %0, align 8
  store ptr getelementptr inbounds ({ [14 x ptr], [4 x ptr] }, ptr @_ZTVN5Ipopt6MatrixE, i64 0, i32 1, i64 2), ptr %4, align 8
  %8 = getelementptr inbounds i8, ptr %0, i64 56
  store ptr null, ptr %8, align 8
  %.not.i.i.i = icmp eq ptr %1, null
  br i1 %.not.i.i.i, label %_ZN5Ipopt6MatrixC2EPKNS_11MatrixSpaceE.exit, label %9

9:                                                ; preds = %_ZN5Ipopt12TaggedObjectC2Ev.exit.i
  %10 = getelementptr inbounds i8, ptr %1, i64 8
  %11 = load i32, ptr %10, align 8
  %12 = add nsw i32 %11, 1
  store i32 %12, ptr %10, align 8
  %.pr.i.i = load ptr, ptr %8, align 8
  %.not.i.i.i.i = icmp eq ptr %.pr.i.i, null
  br i1 %.not.i.i.i.i, label %_ZN5Ipopt6MatrixC2EPKNS_11MatrixSpaceE.exit, label %13

13:                                               ; preds = %9
  %14 = getelementptr inbounds i8, ptr %.pr.i.i, i64 8
  %15 = load i32, ptr %14, align 8
  %16 = add nsw i32 %15, -1
  store i32 %16, ptr %14, align 8
  %17 = load ptr, ptr %8, align 8
  %18 = getelementptr inbounds i8, ptr %17, i64 8
  %19 = load i32, ptr %18, align 8
  %20 = icmp eq i32 %19, 0
  br i1 %20, label %21, label %_ZN5Ipopt6MatrixC2EPKNS_11MatrixSpaceE.exit

21:                                               ; preds = %13
  %22 = load ptr, ptr %17, align 8
  %23 = getelementptr inbounds i8, ptr %22, i64 8
  %24 = load ptr, ptr %23, align 8
  tail call void %24(ptr noundef nonnull align 8 dereferenceable(20) %17) #11
  br label %_ZN5Ipopt6MatrixC2EPKNS_11MatrixSpaceE.exit

_ZN5Ipopt6MatrixC2EPKNS_11MatrixSpaceE.exit:      ; preds = %_ZN5Ipopt12TaggedObjectC2Ev.exit.i, %9, %13, %21
  store ptr %1, ptr %8, align 8
  %25 = getelementptr inbounds i8, ptr %0, i64 64
  store i32 0, ptr %25, align 8
  store ptr getelementptr inbounds ({ [14 x ptr], [4 x ptr] }, ptr @_ZTVN5Ipopt10GenTMatrixE, i64 0, i32 0, i64 2), ptr %0, align 8
  store ptr getelementptr inbounds ({ [14 x ptr], [4 x ptr] }, ptr @_ZTVN5Ipopt10GenTMatrixE, i64 0, i32 1, i64 2), ptr %4, align 8
  %26 = getelementptr inbounds i8, ptr %0, i64 72
  store ptr %1, ptr %26, align 8
  %27 = getelementptr inbounds i8, ptr %0, i64 80
  store ptr null, ptr %27, align 8
  %28 = getelementptr inbounds i8, ptr %0, i64 88
  store i8 0, ptr %28, align 8
  %29 = getelementptr inbounds i8, ptr %1, i64 20
  %30 = load i32, ptr %29, align 4
  %31 = sext i32 %30 to i64
  %32 = icmp slt i32 %30, 0
  %33 = shl nsw i64 %31, 3
  %34 = select i1 %32, i64 -1, i64 %33
  %35 = invoke noalias noundef nonnull ptr @_Znam(i64 noundef %34) #12
          to label %36 unwind label %40

36:                                               ; preds = %_ZN5Ipopt6MatrixC2EPKNS_11MatrixSpaceE.exit
  store ptr %35, ptr %27, align 8
  %37 = load i32, ptr %29, align 4
  %38 = icmp eq i32 %37, 0
  br i1 %38, label %39, label %42

39:                                               ; preds = %36
  store i8 1, ptr %28, align 8
  br label %42

40:                                               ; preds = %_ZN5Ipopt6MatrixC2EPKNS_11MatrixSpaceE.exit
  %41 = landingpad { ptr, i32 }
          cleanup
  tail call void @_ZN5Ipopt6MatrixD2Ev(ptr noundef nonnull align 8 dereferenceable(69) %0) #11
  br label %common.resume

42:                                               ; preds = %39, %36
  ret void
}